target datalayout = "e-m:e-p270:32:32-p271:32:32-p272:64:64-i64:64-i128:128-f80:128-n8:16:32:64-S128"
target triple = "x86_64-pc-linux-gnu"

; Function Attrs: nounwind uwtable
define internal void @Int16_To_Int24(ptr noundef %0, i32 noundef %1, ptr noundef %2, i32 noundef %3, i32 noundef %4, ptr noundef %5) #0 {
  %7 = alloca ptr, align 8
  %8 = alloca i32, align 4
  %9 = alloca ptr, align 8
  %10 = alloca i32, align 4
  %11 = alloca i32, align 4
  %12 = alloca ptr, align 8
  %13 = alloca ptr, align 8
  %14 = alloca ptr, align 8
  %15 = alloca i16, align 2
  store ptr %0, ptr %7, align 8, !tbaa !70
  store i32 %1, ptr %8, align 4, !tbaa !71
  store ptr %2, ptr %9, align 8, !tbaa !70
  store i32 %3, ptr %10, align 4, !tbaa !71
  store i32 %4, ptr %11, align 4, !tbaa !71
  store ptr %5, ptr %12, align 8, !tbaa !73
  call void @llvm.lifetime.start.p0(i64 8, ptr %13) #4
  %16 = load ptr, ptr %9, align 8, !tbaa !70
  store ptr %16, ptr %13, align 8, !tbaa !94
  call void @llvm.lifetime.start.p0(i64 8, ptr %14) #4
  %17 = load ptr, ptr %7, align 8, !tbaa !70
  store ptr %17, ptr %14, align 8, !tbaa !87
  call void @llvm.lifetime.start.p0(i64 2, ptr %15) #4
  br label %18

18:                                               ; preds = %22, %6
  %19 = load i32, ptr %11, align 4, !tbaa !71
  %20 = add i32 %19, -1
  store i32 %20, ptr %11, align 4, !tbaa !71
  %21 = icmp ne i32 %19, 0
  br i1 %21, label %22, label %46

22:                                               ; preds = %18
  %23 = load ptr, ptr %13, align 8, !tbaa !94
  %24 = load i16, ptr %23, align 2, !tbaa !96
  store i16 %24, ptr %15, align 2, !tbaa !96
  %25 = load ptr, ptr %14, align 8, !tbaa !87
  %26 = getelementptr inbounds i8, ptr %25, i64 0
  store i8 0, ptr %26, align 1, !tbaa !89
  %27 = load i16, ptr %15, align 2, !tbaa !96
  %28 = trunc i16 %27 to i8
  %29 = load ptr, ptr %14, align 8, !tbaa !87
  %30 = getelementptr inbounds i8, ptr %29, i64 1
  store i8 %28, ptr %30, align 1, !tbaa !89
  %31 = load i16, ptr %15, align 2, !tbaa !96
  %32 = sext i16 %31 to i32
  %33 = ashr i32 %32, 8
  %34 = trunc i32 %33 to i8
  %35 = load ptr, ptr %14, align 8, !tbaa !87
  %36 = getelementptr inbounds i8, ptr %35, i64 2
  store i8 %34, ptr %36, align 1, !tbaa !89
  %37 = load i32, ptr %10, align 4, !tbaa !71
  %38 = load ptr, ptr %13, align 8, !tbaa !94
  %39 = sext i32 %37 to i64
  %40 = getelementptr inbounds i16, ptr %38, i64 %39
  store ptr %40, ptr %13, align 8, !tbaa !94
  %41 = load i32, ptr %8, align 4, !tbaa !71
  %42 = mul nsw i32 %41, 3
  %43 = load ptr, ptr %14, align 8, !tbaa !87
  %44 = sext i32 %42 to i64
  %45 = getelementptr inbounds i8, ptr %43, i64 %44
  store ptr %45, ptr %14, align 8, !tbaa !87
  br label %18, !llvm.loop !127

46:                                               ; preds = %18
  call void @llvm.lifetime.end.p0(i64 2, ptr %15) #4
  call void @llvm.lifetime.end.p0(i64 8, ptr %14) #4
  call void @llvm.lifetime.end.p0(i64 8, ptr %13) #4
  ret void
}